; Function Attrs: mustprogress uwtable
define noundef range(i32 -2147483648, 1) i32 @_Z14fdt_parse_plicPKvPmPjPKc(ptr noundef %0, ptr noundef writeonly captures(address_is_null) %1, ptr noundef writeonly captures(address_is_null) %2, ptr noundef %3) local_unnamed_addr #3 {
  %5 = alloca i32, align 4
  %6 = alloca i32, align 4
  call void @llvm.lifetime.start.p0(i64 4, ptr nonnull %6) #22
  %7 = tail call i32 @fdt_node_offset_by_compatible(ptr noundef %0, i32 noundef -1, ptr noundef %3)
  %8 = icmp slt i32 %7, 0
  br i1 %8, label %31, label %9

9:                                                ; preds = %4
  call void @llvm.lifetime.start.p0(i64 4, ptr nonnull %5) #22
  %10 = tail call i32 @fdt_parent_offset(ptr noundef %0, i32 noundef %7)
  %11 = icmp slt i32 %10, 0
  br i1 %11, label %_Z22fdt_get_node_addr_sizePKviPmS1_PKc.exit.thread, label %12

12:                                               ; preds = %9
  %13 = tail call i32 @fdt_address_cells(ptr noundef %0, i32 noundef %10)
  %14 = icmp slt i32 %13, 1
  br i1 %14, label %_Z22fdt_get_node_addr_sizePKviPmS1_PKc.exit.thread, label %15

15:                                               ; preds = %12
  %16 = tail call i32 @fdt_size_cells(ptr noundef %0, i32 noundef %10)
  %17 = icmp slt i32 %16, 0
  br i1 %17, label %_Z22fdt_get_node_addr_sizePKviPmS1_PKc.exit.thread, label %18

18:                                               ; preds = %15
  %19 = call ptr @fdt_getprop(ptr noundef %0, i32 noundef %7, ptr noundef nonnull @.str.28, ptr noundef nonnull %5)
  %.not46.i = icmp eq ptr %19, null
  %.not47.i = icmp eq ptr %1, null
  %or.cond23 = or i1 %.not47.i, %.not46.i
  br i1 %or.cond23, label %_Z22fdt_get_node_addr_sizePKviPmS1_PKc.exit.thread, label %.lr.ph.i

.lr.ph.i:                                         ; preds = %18, %.lr.ph.i
  %.053.i = phi i64 [ %24, %.lr.ph.i ], [ 0, %18 ]
  %.03452.i = phi ptr [ %21, %.lr.ph.i ], [ %19, %18 ]
  %.03651.i = phi i32 [ %25, %.lr.ph.i ], [ 0, %18 ]
  %20 = shl i64 %.053.i, 32
  %21 = getelementptr inbounds nuw i8, ptr %.03452.i, i64 4
  %22 = load i32, ptr %.03452.i, align 4, !tbaa !95
  %rev.i.i = call noundef i32 @llvm.bswap.i32(i32 %22)
  %23 = zext i32 %rev.i.i to i64
  %24 = or disjoint i64 %20, %23
  %25 = add nuw nsw i32 %.03651.i, 1
  %exitcond.not.i = icmp eq i32 %25, %13
  br i1 %exitcond.not.i, label %_Z22fdt_get_node_addr_sizePKviPmS1_PKc.exit, label %.lr.ph.i, !llvm.loop !105

_Z22fdt_get_node_addr_sizePKviPmS1_PKc.exit.thread: ; preds = %9, %12, %15, %18
  call void @llvm.lifetime.end.p0(i64 4, ptr nonnull %5) #22
  br label %31

_Z22fdt_get_node_addr_sizePKviPmS1_PKc.exit:      ; preds = %.lr.ph.i
  store i64 %24, ptr %1, align 8, !tbaa !52
  call void @llvm.lifetime.end.p0(i64 4, ptr nonnull %5) #22
  %26 = call ptr @fdt_getprop(ptr noundef %0, i32 noundef %7, ptr noundef nonnull @.str.29, ptr noundef nonnull %6)
  %27 = icmp ne ptr %2, null
  %28 = icmp ne ptr %26, null
  %or.cond3 = select i1 %27, i1 %28, i1 false
  br i1 %or.cond3, label %29, label %31

29:                                               ; preds = %_Z22fdt_get_node_addr_sizePKviPmS1_PKc.exit
  %30 = load i32, ptr %26, align 4, !tbaa !95
  %rev.i = call noundef i32 @llvm.bswap.i32(i32 %30)
  store i32 %rev.i, ptr %2, align 4, !tbaa !95
  br label %31

31:                                               ; preds = %_Z22fdt_get_node_addr_sizePKviPmS1_PKc.exit.thread, %_Z22fdt_get_node_addr_sizePKviPmS1_PKc.exit, %4, %29
  %.0 = phi i32 [ 0, %29 ], [ %7, %4 ], [ -19, %_Z22fdt_get_node_addr_sizePKviPmS1_PKc.exit ], [ -19, %_Z22fdt_get_node_addr_sizePKviPmS1_PKc.exit.thread ]
  call void @llvm.lifetime.end.p0(i64 4, ptr nonnull %6) #22
  ret i32 %.0
}